target datalayout = "e-m:e-p270:32:32-p271:32:32-p272:64:64-i64:64-i128:128-f80:128-n8:16:32:64-S128"
target triple = "x86_64-pc-linux-gnu"

%class.btVector3 = type { [4 x float] }

; Function Attrs: inlinehint mustprogress nounwind uwtable
define linkonce_odr dso_local void @_ZN9btVector3C2ERKfS1_S1_(ptr noundef nonnull align 4 dereferenceable(16) %0, ptr noundef nonnull align 4 dereferenceable(4) %1, ptr noundef nonnull align 4 dereferenceable(4) %2, ptr noundef nonnull align 4 dereferenceable(4) %3) unnamed_addr #3 comdat align 2 {
  %5 = alloca ptr, align 8
  %6 = alloca ptr, align 8
  %7 = alloca ptr, align 8
  %8 = alloca ptr, align 8
  store ptr %0, ptr %5, align 8, !tbaa !14
  store ptr %1, ptr %6, align 8, !tbaa !16
  store ptr %2, ptr %7, align 8, !tbaa !16
  store ptr %3, ptr %8, align 8, !tbaa !16
  %9 = load ptr, ptr %5, align 8
  %10 = load ptr, ptr %6, align 8, !tbaa !16
  %11 = load float, ptr %10, align 4, !tbaa !12
  %12 = getelementptr inbounds nuw %class.btVector3, ptr %9, i32 0, i32 0
  %13 = getelementptr inbounds [4 x float], ptr %12, i64 0, i64 0
  store float %11, ptr %13, align 4, !tbaa !12
  %14 = load ptr, ptr %7, align 8, !tbaa !16
  %15 = load float, ptr %14, align 4, !tbaa !12
  %16 = getelementptr inbounds nuw %class.btVector3, ptr %9, i32 0, i32 0
  %17 = getelementptr inbounds [4 x float], ptr %16, i64 0, i64 1
  store float %15, ptr %17, align 4, !tbaa !12
  %18 = load ptr, ptr %8, align 8, !tbaa !16
  %19 = load float, ptr %18, align 4, !tbaa !12
  %20 = getelementptr inbounds nuw %class.btVector3, ptr %9, i32 0, i32 0
  %21 = getelementptr inbounds [4 x float], ptr %20, i64 0, i64 2
  store float %19, ptr %21, align 4, !tbaa !12
  %22 = getelementptr inbounds nuw %class.btVector3, ptr %9, i32 0, i32 0
  %23 = getelementptr inbounds [4 x float], ptr %22, i64 0, i64 3
  store float 0.000000e+00, ptr %23, align 4, !tbaa !12
  ret void
}

; Function Attrs: inlinehint mustprogress uwtable
define linkonce_odr dso_local { <2 x float>, <2 x float> } @_ZNK9btVector34lerpERKS_RKf(ptr noundef nonnull align 4 dereferenceable(16) %0, ptr noundef nonnull align 4 dereferenceable(16) %1, ptr noundef nonnull align 4 dereferenceable(4) %2) #8 comdat align 2 {
  %4 = alloca %class.btVector3, align 4
  %5 = alloca ptr, align 8
  %6 = alloca ptr, align 8
  %7 = alloca ptr, align 8
  %8 = alloca float, align 4
  %9 = alloca float, align 4
  %10 = alloca float, align 4
  store ptr %0, ptr %5, align 8, !tbaa !14
  store ptr %1, ptr %6, align 8, !tbaa !14
  store ptr %2, ptr %7, align 8, !tbaa !16
  %11 = load ptr, ptr %5, align 8
  call void @llvm.lifetime.start.p0(i64 4, ptr %8) #6
  %12 = getelementptr inbounds nuw %class.btVector3, ptr %11, i32 0, i32 0
  %13 = getelementptr inbounds [4 x float], ptr %12, i64 0, i64 0
  %14 = load float, ptr %13, align 4, !tbaa !12
  %15 = load ptr, ptr %6, align 8, !tbaa !14
  %16 = getelementptr inbounds nuw %class.btVector3, ptr %15, i32 0, i32 0
  %17 = getelementptr inbounds [4 x float], ptr %16, i64 0, i64 0
  %18 = load float, ptr %17, align 4, !tbaa !12
  %19 = getelementptr inbounds nuw %class.btVector3, ptr %11, i32 0, i32 0
  %20 = getelementptr inbounds [4 x float], ptr %19, i64 0, i64 0
  %21 = load float, ptr %20, align 4, !tbaa !12
  %22 = fsub float %18, %21
  %23 = load ptr, ptr %7, align 8, !tbaa !16
  %24 = load float, ptr %23, align 4, !tbaa !12
  %25 = call float @llvm.fmuladd.f32(float %22, float %24, float %14)
  store float %25, ptr %8, align 4, !tbaa !12
  call void @llvm.lifetime.start.p0(i64 4, ptr %9) #6
  %26 = getelementptr inbounds nuw %class.btVector3, ptr %11, i32 0, i32 0
  %27 = getelementptr inbounds [4 x float], ptr %26, i64 0, i64 1
  %28 = load float, ptr %27, align 4, !tbaa !12
  %29 = load ptr, ptr %6, align 8, !tbaa !14
  %30 = getelementptr inbounds nuw %class.btVector3, ptr %29, i32 0, i32 0
  %31 = getelementptr inbounds [4 x float], ptr %30, i64 0, i64 1
  %32 = load float, ptr %31, align 4, !tbaa !12
  %33 = getelementptr inbounds nuw %class.btVector3, ptr %11, i32 0, i32 0
  %34 = getelementptr inbounds [4 x float], ptr %33, i64 0, i64 1
  %35 = load float, ptr %34, align 4, !tbaa !12
  %36 = fsub float %32, %35
  %37 = load ptr, ptr %7, align 8, !tbaa !16
  %38 = load float, ptr %37, align 4, !tbaa !12
  %39 = call float @llvm.fmuladd.f32(float %36, float %38, float %28)
  store float %39, ptr %9, align 4, !tbaa !12
  call void @llvm.lifetime.start.p0(i64 4, ptr %10) #6
  %40 = getelementptr inbounds nuw %class.btVector3, ptr %11, i32 0, i32 0
  %41 = getelementptr inbounds [4 x float], ptr %40, i64 0, i64 2
  %42 = load float, ptr %41, align 4, !tbaa !12
  %43 = load ptr, ptr %6, align 8, !tbaa !14
  %44 = getelementptr inbounds nuw %class.btVector3, ptr %43, i32 0, i32 0
  %45 = getelementptr inbounds [4 x float], ptr %44, i64 0, i64 2
  %46 = load float, ptr %45, align 4, !tbaa !12
  %47 = getelementptr inbounds nuw %class.btVector3, ptr %11, i32 0, i32 0
  %48 = getelementptr inbounds [4 x float], ptr %47, i64 0, i64 2
  %49 = load float, ptr %48, align 4, !tbaa !12
  %50 = fsub float %46, %49
  %51 = load ptr, ptr %7, align 8, !tbaa !16
  %52 = load float, ptr %51, align 4, !tbaa !12
  %53 = call float @llvm.fmuladd.f32(float %50, float %52, float %42)
  store float %53, ptr %10, align 4, !tbaa !12
  call void @_ZN9btVector3C2ERKfS1_S1_(ptr noundef nonnull align 4 dereferenceable(16) %4, ptr noundef nonnull align 4 dereferenceable(4) %8, ptr noundef nonnull align 4 dereferenceable(4) %9, ptr noundef nonnull align 4 dereferenceable(4) %10)
  call void @llvm.lifetime.end.p0(i64 4, ptr %10) #6
  call void @llvm.lifetime.end.p0(i64 4, ptr %9) #6
  call void @llvm.lifetime.end.p0(i64 4, ptr %8) #6
  %54 = getelementptr inbounds nuw %class.btVector3, ptr %4, i32 0, i32 0
  %55 = load { <2 x float>, <2 x float> }, ptr %54, align 4
  ret { <2 x float>, <2 x float> } %55
}

; Function Attrs: inlinehint mustprogress nounwind uwtable
define linkonce_odr dso_local void @_ZN17btCollisionObjectdlEPv(ptr noundef %0) #3 comdat align 2 personality ptr @__gxx_personality_v0 {
  %2 = alloca ptr, align 8
  store ptr %0, ptr %2, align 8, !tbaa !278
  %3 = load ptr, ptr %2, align 8, !tbaa !278
  invoke void @_Z21btAlignedFreeInternalPv(ptr noundef %3)
          to label %4 unwind label %5

4:                                                ; preds = %1
  ret void

5:                                                ; preds = %1
  %6 = landingpad { ptr, i32 }
          catch ptr null
  %7 = extractvalue { ptr, i32 } %6, 0
  call void @__clang_call_terminate(ptr %7) #21
  unreachable
}

; Function Attrs: inlinehint mustprogress uwtable
define linkonce_odr dso_local noundef ptr @_ZN17btCollisionObjectnwEm(i64 noundef %0) #8 comdat align 2 {
  %2 = alloca i64, align 8
  store i64 %0, ptr %2, align 8, !tbaa !276
  %3 = load i64, ptr %2, align 8, !tbaa !276
  %4 = call noundef ptr @_Z22btAlignedAllocInternalmi(i64 noundef %3, i32 noundef 16)
  ret ptr %4
}

; Function Attrs: inlinehint mustprogress nounwind uwtable
define linkonce_odr dso_local void @_ZN9btVector3daEPv(ptr noundef %0) #3 comdat align 2 personality ptr @__gxx_personality_v0 {
  %2 = alloca ptr, align 8
  store ptr %0, ptr %2, align 8, !tbaa !278
  %3 = load ptr, ptr %2, align 8, !tbaa !278
  invoke void @_Z21btAlignedFreeInternalPv(ptr noundef %3)
          to label %4 unwind label %5

4:                                                ; preds = %1
  ret void

5:                                                ; preds = %1
  %6 = landingpad { ptr, i32 }
          catch ptr null
  %7 = extractvalue { ptr, i32 } %6, 0
  call void @__clang_call_terminate(ptr %7) #21
  unreachable
}

; Function Attrs: inlinehint mustprogress uwtable
define linkonce_odr dso_local { <2 x float>, <2 x float> } @_Z4lerpRK9btVector3S1_RKf(ptr noundef nonnull align 4 dereferenceable(16) %0, ptr noundef nonnull align 4 dereferenceable(16) %1, ptr noundef nonnull align 4 dereferenceable(4) %2) #11 comdat {
  %4 = alloca %class.btVector3, align 4
  %5 = alloca ptr, align 8
  %6 = alloca ptr, align 8
  %7 = alloca ptr, align 8
  store ptr %0, ptr %5, align 8, !tbaa !14
  store ptr %1, ptr %6, align 8, !tbaa !14
  store ptr %2, ptr %7, align 8, !tbaa !16
  %8 = load ptr, ptr %5, align 8, !tbaa !14
  %9 = load ptr, ptr %6, align 8, !tbaa !14
  %10 = load ptr, ptr %7, align 8, !tbaa !16
  %11 = call { <2 x float>, <2 x float> } @_ZNK9btVector34lerpERKS_RKf(ptr noundef nonnull align 4 dereferenceable(16) %8, ptr noundef nonnull align 4 dereferenceable(16) %9, ptr noundef nonnull align 4 dereferenceable(4) %10)
  %12 = getelementptr inbounds nuw %class.btVector3, ptr %4, i32 0, i32 0
  %13 = getelementptr inbounds nuw { <2 x float>, <2 x float> }, ptr %12, i32 0, i32 0
  %14 = extractvalue { <2 x float>, <2 x float> } %11, 0
  store <2 x float> %14, ptr %13, align 4
  %15 = getelementptr inbounds nuw { <2 x float>, <2 x float> }, ptr %12, i32 0, i32 1
  %16 = extractvalue { <2 x float>, <2 x float> } %11, 1
  store <2 x float> %16, ptr %15, align 4
  %17 = getelementptr inbounds nuw %class.btVector3, ptr %4, i32 0, i32 0
  %18 = load { <2 x float>, <2 x float> }, ptr %17, align 4
  ret { <2 x float>, <2 x float> } %18
}

; Function Attrs: inlinehint mustprogress nounwind uwtable
define linkonce_odr dso_local void @_ZN9btVector3C2Ev(ptr noundef nonnull align 4 dereferenceable(16) %0) unnamed_addr #3 comdat align 2 {
  %2 = alloca ptr, align 8
  store ptr %0, ptr %2, align 8, !tbaa !14
  ret void
}

; Function Attrs: inlinehint mustprogress uwtable
define linkonce_odr dso_local noundef ptr @_ZN9btVector3naEm(i64 noundef %0) #8 comdat align 2 {
  %2 = alloca i64, align 8
  store i64 %0, ptr %2, align 8, !tbaa !276
  %3 = load i64, ptr %2, align 8, !tbaa !276
  %4 = call noundef ptr @_Z22btAlignedAllocInternalmi(i64 noundef %3, i32 noundef 16)
  ret ptr %4
}

; Function Attrs: mustprogress uwtable
define dso_local noundef ptr @_ZN17btSoftBodyHelpers10CreateRopeER19btSoftBodyWorldInfoRK9btVector3S4_ii(ptr noundef nonnull align 8 dereferenceable(128) %0, ptr noundef nonnull align 4 dereferenceable(16) %1, ptr noundef nonnull align 4 dereferenceable(16) %2, i32 noundef %3, i32 noundef %4) #7 align 2 personality ptr @__gxx_personality_v0 {
  %6 = alloca ptr, align 8
  %7 = alloca ptr, align 8
  %8 = alloca ptr, align 8
  %9 = alloca i32, align 4
  %10 = alloca i32, align 4
  %11 = alloca i32, align 4
  %12 = alloca ptr, align 8
  %13 = alloca ptr, align 8
  %14 = alloca i32, align 4
  %15 = alloca ptr, align 8
  %16 = alloca i32, align 4
  %17 = alloca float, align 4
  %18 = alloca %class.btVector3, align 4
  %19 = alloca ptr, align 8
  store ptr %0, ptr %6, align 8, !tbaa !281
  store ptr %1, ptr %7, align 8, !tbaa !14
  store ptr %2, ptr %8, align 8, !tbaa !14
  store i32 %3, ptr %9, align 4, !tbaa !9
  store i32 %4, ptr %10, align 4, !tbaa !9
  call void @llvm.lifetime.start.p0(i64 4, ptr %11) #6
  %20 = load i32, ptr %9, align 4, !tbaa !9
  %21 = add nsw i32 %20, 2
  store i32 %21, ptr %11, align 4, !tbaa !9
  call void @llvm.lifetime.start.p0(i64 8, ptr %12) #6
  %22 = load i32, ptr %11, align 4, !tbaa !9
  %23 = sext i32 %22 to i64
  %24 = call { i64, i1 } @llvm.umul.with.overflow.i64(i64 %23, i64 16)
  %25 = extractvalue { i64, i1 } %24, 1
  %26 = extractvalue { i64, i1 } %24, 0
  %27 = select i1 %25, i64 -1, i64 %26
  %28 = call noundef ptr @_ZN9btVector3naEm(i64 noundef %27)
  %29 = icmp eq i64 %23, 0
  br i1 %29, label %37, label %30

30:                                               ; preds = %5
  %31 = getelementptr inbounds %class.btVector3, ptr %28, i64 %23
  br label %32

32:                                               ; preds = %34, %30
  %33 = phi ptr [ %28, %30 ], [ %35, %34 ]
  invoke void @_ZN9btVector3C2Ev(ptr noundef nonnull align 4 dereferenceable(16) %33)
          to label %34 unwind label %75

34:                                               ; preds = %32
  %35 = getelementptr inbounds %class.btVector3, ptr %33, i64 1
  %36 = icmp eq ptr %35, %31
  br i1 %36, label %37, label %32

37:                                               ; preds = %5, %34
  store ptr %28, ptr %12, align 8, !tbaa !14
  call void @llvm.lifetime.start.p0(i64 8, ptr %15) #6
  %38 = load i32, ptr %11, align 4, !tbaa !9
  %39 = sext i32 %38 to i64
  %40 = call { i64, i1 } @llvm.umul.with.overflow.i64(i64 %39, i64 4)
  %41 = extractvalue { i64, i1 } %40, 1
  %42 = extractvalue { i64, i1 } %40, 0
  %43 = select i1 %41, i64 -1, i64 %42
  %44 = call noalias noundef nonnull ptr @_Znam(i64 noundef %43) #22
  store ptr %44, ptr %15, align 8, !tbaa !16
  call void @llvm.lifetime.start.p0(i64 4, ptr %16) #6
  store i32 0, ptr %16, align 4, !tbaa !9
  br label %45

45:                                               ; preds = %72, %37
  %46 = load i32, ptr %16, align 4, !tbaa !9
  %47 = load i32, ptr %11, align 4, !tbaa !9
  %48 = icmp slt i32 %46, %47
  br i1 %48, label %49, label %79

49:                                               ; preds = %45
  call void @llvm.lifetime.start.p0(i64 4, ptr %17) #6
  %50 = load i32, ptr %16, align 4, !tbaa !9
  %51 = sitofp i32 %50 to float
  %52 = load i32, ptr %11, align 4, !tbaa !9
  %53 = sub nsw i32 %52, 1
  %54 = sitofp i32 %53 to float
  %55 = fdiv float %51, %54
  store float %55, ptr %17, align 4, !tbaa !12
  call void @llvm.lifetime.start.p0(i64 16, ptr %18) #6
  %56 = load ptr, ptr %7, align 8, !tbaa !14
  %57 = load ptr, ptr %8, align 8, !tbaa !14
  %58 = call { <2 x float>, <2 x float> } @_Z4lerpRK9btVector3S1_RKf(ptr noundef nonnull align 4 dereferenceable(16) %56, ptr noundef nonnull align 4 dereferenceable(16) %57, ptr noundef nonnull align 4 dereferenceable(4) %17)
  %59 = getelementptr inbounds nuw %class.btVector3, ptr %18, i32 0, i32 0
  %60 = getelementptr inbounds nuw { <2 x float>, <2 x float> }, ptr %59, i32 0, i32 0
  %61 = extractvalue { <2 x float>, <2 x float> } %58, 0
  store <2 x float> %61, ptr %60, align 4
  %62 = getelementptr inbounds nuw { <2 x float>, <2 x float> }, ptr %59, i32 0, i32 1
  %63 = extractvalue { <2 x float>, <2 x float> } %58, 1
  store <2 x float> %63, ptr %62, align 4
  %64 = load ptr, ptr %12, align 8, !tbaa !14
  %65 = load i32, ptr %16, align 4, !tbaa !9
  %66 = sext i32 %65 to i64
  %67 = getelementptr inbounds %class.btVector3, ptr %64, i64 %66
  call void @llvm.memcpy.p0.p0.i64(ptr align 4 %67, ptr align 4 %18, i64 16, i1 false), !tbaa.struct !40
  call void @llvm.lifetime.end.p0(i64 16, ptr %18) #6
  %68 = load ptr, ptr %15, align 8, !tbaa !16
  %69 = load i32, ptr %16, align 4, !tbaa !9
  %70 = sext i32 %69 to i64
  %71 = getelementptr inbounds float, ptr %68, i64 %70
  store float 1.000000e+00, ptr %71, align 4, !tbaa !12
  call void @llvm.lifetime.end.p0(i64 4, ptr %17) #6
  br label %72

72:                                               ; preds = %49
  %73 = load i32, ptr %16, align 4, !tbaa !9
  %74 = add nsw i32 %73, 1
  store i32 %74, ptr %16, align 4, !tbaa !9
  br label %45, !llvm.loop !282

75:                                               ; preds = %32
  %76 = landingpad { ptr, i32 }
          cleanup
  %77 = extractvalue { ptr, i32 } %76, 0
  store ptr %77, ptr %13, align 8
  %78 = extractvalue { ptr, i32 } %76, 1
  store i32 %78, ptr %14, align 4
  call void @_ZN9btVector3daEPv(ptr noundef %28) #6
  br label %126

79:                                               ; preds = %45
  call void @llvm.lifetime.start.p0(i64 8, ptr %19) #6
  %80 = call noundef ptr @_ZN17btCollisionObjectnwEm(i64 noundef 2064)
  %81 = load ptr, ptr %6, align 8, !tbaa !281
  %82 = load i32, ptr %11, align 4, !tbaa !9
  %83 = load ptr, ptr %12, align 8, !tbaa !14
  %84 = load ptr, ptr %15, align 8, !tbaa !16
  invoke void @_ZN10btSoftBodyC1EP19btSoftBodyWorldInfoiPK9btVector3PKf(ptr noundef nonnull align 8 dereferenceable(2064) %80, ptr noundef %81, i32 noundef %82, ptr noundef %83, ptr noundef %84)
          to label %85 unwind label %91

85:                                               ; preds = %79
  store ptr %80, ptr %19, align 8, !tbaa !18
  %86 = load i32, ptr %10, align 4, !tbaa !9
  %87 = and i32 %86, 1
  %88 = icmp ne i32 %87, 0
  br i1 %88, label %89, label %95

89:                                               ; preds = %85
  %90 = load ptr, ptr %19, align 8, !tbaa !18
  call void @_ZN10btSoftBody7setMassEif(ptr noundef nonnull align 8 dereferenceable(2064) %90, i32 noundef 0, float noundef 0.000000e+00)
  br label %95

91:                                               ; preds = %79
  %92 = landingpad { ptr, i32 }
          cleanup
  %93 = extractvalue { ptr, i32 } %92, 0
  store ptr %93, ptr %13, align 8
  %94 = extractvalue { ptr, i32 } %92, 1
  store i32 %94, ptr %14, align 4
  call void @_ZN17btCollisionObjectdlEPv(ptr noundef %80) #6
  call void @llvm.lifetime.end.p0(i64 8, ptr %19) #6
  call void @llvm.lifetime.end.p0(i64 4, ptr %16) #6
  call void @llvm.lifetime.end.p0(i64 8, ptr %15) #6
  br label %126

95:                                               ; preds = %89, %85
  %96 = load i32, ptr %10, align 4, !tbaa !9
  %97 = and i32 %96, 2
  %98 = icmp ne i32 %97, 0
  br i1 %98, label %99, label %103

99:                                               ; preds = %95
  %100 = load ptr, ptr %19, align 8, !tbaa !18
  %101 = load i32, ptr %11, align 4, !tbaa !9
  %102 = sub nsw i32 %101, 1
  call void @_ZN10btSoftBody7setMassEif(ptr noundef nonnull align 8 dereferenceable(2064) %100, i32 noundef %102, float noundef 0.000000e+00)
  br label %103

103:                                              ; preds = %99, %95
  %104 = load ptr, ptr %12, align 8, !tbaa !14
  %105 = icmp eq ptr %104, null
  br i1 %105, label %107, label %106

106:                                              ; preds = %103
  call void @_ZN9btVector3daEPv(ptr noundef %104) #6
  br label %107

107:                                              ; preds = %106, %103
  %108 = load ptr, ptr %15, align 8, !tbaa !16
  %109 = icmp eq ptr %108, null
  br i1 %109, label %111, label %110

110:                                              ; preds = %107
  call void @_ZdaPv(ptr noundef %108) #23
  br label %111

111:                                              ; preds = %110, %107
  store i32 1, ptr %16, align 4, !tbaa !9
  br label %112

112:                                              ; preds = %121, %111
  %113 = load i32, ptr %16, align 4, !tbaa !9
  %114 = load i32, ptr %11, align 4, !tbaa !9
  %115 = icmp slt i32 %113, %114
  br i1 %115, label %116, label %124

116:                                              ; preds = %112
  %117 = load ptr, ptr %19, align 8, !tbaa !18
  %118 = load i32, ptr %16, align 4, !tbaa !9
  %119 = sub nsw i32 %118, 1
  %120 = load i32, ptr %16, align 4, !tbaa !9
  call void @_ZN10btSoftBody10appendLinkEiiPNS_8MaterialEb(ptr noundef nonnull align 8 dereferenceable(2064) %117, i32 noundef %119, i32 noundef %120, ptr noundef null, i1 noundef zeroext false)
  br label %121

121:                                              ; preds = %116
  %122 = load i32, ptr %16, align 4, !tbaa !9
  %123 = add nsw i32 %122, 1
  store i32 %123, ptr %16, align 4, !tbaa !9
  br label %112, !llvm.loop !283

124:                                              ; preds = %112
  %125 = load ptr, ptr %19, align 8, !tbaa !18
  call void @llvm.lifetime.end.p0(i64 8, ptr %19) #6
  call void @llvm.lifetime.end.p0(i64 4, ptr %16) #6
  call void @llvm.lifetime.end.p0(i64 8, ptr %15) #6
  call void @llvm.lifetime.end.p0(i64 8, ptr %12) #6
  call void @llvm.lifetime.end.p0(i64 4, ptr %11) #6
  ret ptr %125

126:                                              ; preds = %91, %75
  call void @llvm.lifetime.end.p0(i64 8, ptr %12) #6
  call void @llvm.lifetime.end.p0(i64 4, ptr %11) #6
  br label %127

127:                                              ; preds = %126
  %128 = load ptr, ptr %13, align 8
  %129 = load i32, ptr %14, align 4
  %130 = insertvalue { ptr, i32 } poison, ptr %128, 0
  %131 = insertvalue { ptr, i32 } %130, i32 %129, 1
  resume { ptr, i32 } %131
}