; Function Attrs: mustprogress uwtable
define dso_local noundef ptr @_ZN17btSoftBodyHelpers10CreateRopeER19btSoftBodyWorldInfoRK9btVector3S4_ii(ptr noundef nonnull align 8 dereferenceable(128) %0, ptr noundef nonnull readonly align 4 captures(none) dereferenceable(16) %1, ptr noundef nonnull readonly align 4 captures(none) dereferenceable(16) %2, i32 noundef %3, i32 noundef %4) local_unnamed_addr #4 align 2 personality ptr @__gxx_personality_v0 {
.loopexit:
  %5 = add i32 %3, 2
  %6 = sext i32 %5 to i64
  %7 = icmp slt i32 %3, -2
  %8 = shl nsw i64 %6, 4
  %9 = select i1 %7, i64 -1, i64 %8
  %10 = tail call noundef ptr @_Z22btAlignedAllocInternalmi(i64 noundef %9, i32 noundef 16)
  %11 = shl nsw i64 %6, 2
  %12 = select i1 %7, i64 -1, i64 %11
  %13 = tail call noalias noundef nonnull ptr @_Znam(i64 noundef %12) #29
  %14 = icmp sgt i32 %3, -2
  br i1 %14, label %.lr.ph, label %._crit_edge

.lr.ph:                                           ; preds = %.loopexit
  %15 = add nsw i32 %3, 1
  %16 = uitofp nneg i32 %15 to float
  %17 = getelementptr inbounds nuw i8, ptr %1, i64 4
  %18 = getelementptr inbounds nuw i8, ptr %2, i64 4
  %19 = getelementptr inbounds nuw i8, ptr %1, i64 8
  %20 = getelementptr inbounds nuw i8, ptr %2, i64 8
  %smax = tail call i32 @llvm.smax.i32(i32 %5, i32 1)
  %wide.trip.count = zext nneg i32 %smax to i64
  br label %21

21:                                               ; preds = %.lr.ph, %21
  %indvars.iv = phi i64 [ 0, %.lr.ph ], [ %indvars.iv.next, %21 ]
  %22 = trunc nuw nsw i64 %indvars.iv to i32
  %23 = uitofp nneg i32 %22 to float
  %24 = fdiv float %23, %16
  %25 = load float, ptr %1, align 4, !tbaa !4
  %26 = load float, ptr %2, align 4, !tbaa !4
  %27 = fsub float %26, %25
  %28 = tail call float @llvm.fmuladd.f32(float %27, float %24, float %25)
  %29 = load float, ptr %17, align 4, !tbaa !4
  %30 = load float, ptr %18, align 4, !tbaa !4
  %31 = fsub float %30, %29
  %32 = tail call float @llvm.fmuladd.f32(float %31, float %24, float %29)
  %33 = load float, ptr %19, align 4, !tbaa !4
  %34 = load float, ptr %20, align 4, !tbaa !4
  %35 = fsub float %34, %33
  %36 = tail call float @llvm.fmuladd.f32(float %35, float %24, float %33)
  %.sroa.0.0.vec.insert.i.i = insertelement <2 x float> poison, float %28, i64 0
  %.sroa.0.4.vec.insert.i.i = insertelement <2 x float> %.sroa.0.0.vec.insert.i.i, float %32, i64 1
  %.sroa.3.12.vec.insert.i.i = insertelement <2 x float> <float poison, float 0.000000e+00>, float %36, i64 0
  %37 = getelementptr inbounds nuw %class.btVector3, ptr %10, i64 %indvars.iv
  store <2 x float> %.sroa.0.4.vec.insert.i.i, ptr %37, align 4
  %.sroa.4.0..sroa_idx = getelementptr inbounds nuw i8, ptr %37, i64 8
  store <2 x float> %.sroa.3.12.vec.insert.i.i, ptr %.sroa.4.0..sroa_idx, align 4, !tbaa !35
  %38 = getelementptr inbounds nuw float, ptr %13, i64 %indvars.iv
  store float 1.000000e+00, ptr %38, align 4, !tbaa !4
  %indvars.iv.next = add nuw nsw i64 %indvars.iv, 1
  %exitcond.not = icmp eq i64 %indvars.iv.next, %wide.trip.count
  br i1 %exitcond.not, label %._crit_edge, label %21, !llvm.loop !228

._crit_edge:                                      ; preds = %21, %.loopexit
  %39 = tail call noundef ptr @_Z22btAlignedAllocInternalmi(i64 noundef 2064, i32 noundef 16)
  invoke void @_ZN10btSoftBodyC1EP19btSoftBodyWorldInfoiPK9btVector3PKf(ptr noundef nonnull align 8 dereferenceable(2064) %39, ptr noundef nonnull %0, i32 noundef %5, ptr noundef %10, ptr noundef nonnull %13)
          to label %40 unwind label %43

40:                                               ; preds = %._crit_edge
  %41 = and i32 %4, 1
  %.not = icmp eq i32 %41, 0
  br i1 %.not, label %48, label %42

42:                                               ; preds = %40
  tail call void @_ZN10btSoftBody7setMassEif(ptr noundef nonnull align 8 dereferenceable(2064) %39, i32 noundef 0, float noundef 0.000000e+00)
  br label %48

43:                                               ; preds = %._crit_edge
  %44 = landingpad { ptr, i32 }
          cleanup
  invoke void @_Z21btAlignedFreeInternalPv(ptr noundef nonnull %39)
          to label %_ZN17btCollisionObjectdlEPv.exit unwind label %45

45:                                               ; preds = %43
  %46 = landingpad { ptr, i32 }
          catch ptr null
  %47 = extractvalue { ptr, i32 } %46, 0
  tail call void @__clang_call_terminate(ptr %47) #28
  unreachable

_ZN17btCollisionObjectdlEPv.exit:                 ; preds = %43
  resume { ptr, i32 } %44

48:                                               ; preds = %42, %40
  %49 = and i32 %4, 2
  %.not37 = icmp eq i32 %49, 0
  br i1 %.not37, label %52, label %50

50:                                               ; preds = %48
  %51 = add nsw i32 %3, 1
  tail call void @_ZN10btSoftBody7setMassEif(ptr noundef nonnull align 8 dereferenceable(2064) %39, i32 noundef %51, float noundef 0.000000e+00)
  br label %52

52:                                               ; preds = %50, %48
  %53 = icmp eq ptr %10, null
  br i1 %53, label %_ZN9btVector3daEPv.exit, label %54

54:                                               ; preds = %52
  invoke void @_Z21btAlignedFreeInternalPv(ptr noundef nonnull %10)
          to label %_ZN9btVector3daEPv.exit unwind label %55

55:                                               ; preds = %54
  %56 = landingpad { ptr, i32 }
          catch ptr null
  %57 = extractvalue { ptr, i32 } %56, 0
  tail call void @__clang_call_terminate(ptr %57) #28
  unreachable

_ZN9btVector3daEPv.exit:                          ; preds = %54, %52
  tail call void @_ZdaPv(ptr noundef nonnull %13) #30
  %58 = icmp sgt i32 %3, -1
  br i1 %58, label %.lr.ph40.preheader, label %._crit_edge41

.lr.ph40.preheader:                               ; preds = %_ZN9btVector3daEPv.exit
  %smax43 = tail call i32 @llvm.smax.i32(i32 %5, i32 2)
  br label %.lr.ph40

.lr.ph40:                                         ; preds = %.lr.ph40.preheader, %.lr.ph40
  %.139 = phi i32 [ %60, %.lr.ph40 ], [ 1, %.lr.ph40.preheader ]
  %59 = add nsw i32 %.139, -1
  tail call void @_ZN10btSoftBody10appendLinkEiiPNS_8MaterialEb(ptr noundef nonnull align 8 dereferenceable(2064) %39, i32 noundef %59, i32 noundef %.139, ptr noundef null, i1 noundef zeroext false)
  %60 = add nuw nsw i32 %.139, 1
  %exitcond44.not = icmp eq i32 %60, %smax43
  br i1 %exitcond44.not, label %._crit_edge41, label %.lr.ph40, !llvm.loop !229

._crit_edge41:                                    ; preds = %.lr.ph40, %_ZN9btVector3daEPv.exit
  ret ptr %39
}